target datalayout = "e-m:e-p270:32:32-p271:32:32-p272:64:64-i64:64-i128:128-f80:128-n8:16:32:64-S128"
target triple = "x86_64-pc-linux-gnu"

%struct.slurm_conf_t = type { i64, ptr, i16, ptr, ptr, ptr, ptr, ptr, i16, ptr, ptr, ptr, ptr, ptr, ptr, ptr, i16, ptr, ptr, ptr, ptr, i16, ptr, ptr, ptr, i64, ptr, ptr, ptr, ptr, i16, ptr, ptr, i16, i32, ptr, i32, ptr, i32, i32, ptr, ptr, i64, i64, ptr, i16, i16, ptr, i32, i32, ptr, i32, ptr, i32, i16, i16, i16, ptr, i16, i16, ptr, ptr, i32, i16, i16, ptr, i32, i16, ptr, ptr, ptr, ptr, i16, ptr, ptr, ptr, ptr, i32, ptr, ptr, ptr, ptr, i16, i16, ptr, i32, i32, i32, i16, i16, ptr, ptr, i16, ptr, ptr, i32, i32, i32, i32, i32, i64, i32, i32, i16, ptr, ptr, i32, ptr, ptr, ptr, i16, i32, ptr, ptr, i16, ptr, ptr, i32, i16, ptr, ptr, ptr, ptr, i32, i32, i16, i16, i32, ptr, i16, ptr, i32, i32, i32, i32, i32, i32, ptr, i16, ptr, ptr, i32, i16, ptr, i32, i16, i16, ptr, ptr, ptr, i16, ptr, ptr, ptr, ptr, i16, i16, ptr, i16, ptr, i16, ptr, i16, ptr, i16, ptr, ptr, ptr, ptr, i16, ptr, ptr, ptr, i32, ptr, i32, ptr, ptr, i16, ptr, ptr, i32, i16, ptr, ptr, i16, i16, ptr, i16, ptr, ptr, ptr, i32, ptr, i16, i16, ptr, ptr, ptr, ptr, ptr, ptr, ptr, ptr, i16, i32, i16, ptr, ptr, ptr, ptr, i32, ptr, ptr, ptr, i16, ptr, ptr, ptr, i16, ptr, i16, ptr, i16, i16, ptr }
%struct.node_record = type { ptr, ptr, i16, i64, i64, ptr, ptr, ptr, i16, ptr, i16, i16, i32, i32, i64, ptr, i16, i16, ptr, ptr, ptr, ptr, ptr, i64, i64, ptr, ptr, ptr, ptr, i32, ptr, ptr, i64, i64, i32, ptr, i64, ptr, i32, i16, ptr, ptr, i32, ptr, i32, i8, ptr, i32, i16, i16, ptr, i16, i64, i16, i64, ptr, i64, i32, i16, i64, i16, ptr, i16, i64, ptr, i64, i16, i32, i16, ptr, ptr, ptr, i16, i32, i16, i16, i32, ptr, i16, i32 }
%struct.config_record_t = type { i16, i16, i16, i32, ptr, i16, ptr, ptr, i32, i64, ptr, ptr, i64, i16, i16, i32, i16, ptr, ptr, i32 }
%struct.slurm_conf_node = type { ptr, ptr, ptr, ptr, ptr, ptr, ptr, i32, i16, ptr, i16, i16, i16, i16, i16, i64, i64, ptr, i16, ptr, i32, ptr, i32 }

@cloud_node_bitmap = dso_local global ptr null, align 8
@future_node_bitmap = dso_local global ptr null, align 8
@power_down_node_bitmap = dso_local global ptr null, align 8
@power_up_node_bitmap = dso_local global ptr null, align 8
@slurm_conf = external global %struct.slurm_conf_t, align 8

; Function Attrs: nounwind uwtable
define internal i32 @_build_node_callback(ptr noundef %0, ptr noundef %1, ptr noundef %2, ptr noundef %3, i16 noundef zeroext %4, i32 noundef %5, ptr noundef %6, ptr noundef %7) #0 {
  %9 = alloca ptr, align 8
  %10 = alloca ptr, align 8
  %11 = alloca ptr, align 8
  %12 = alloca ptr, align 8
  %13 = alloca i16, align 2
  %14 = alloca i32, align 4
  %15 = alloca ptr, align 8
  %16 = alloca ptr, align 8
  %17 = alloca i32, align 4
  %18 = alloca ptr, align 8
  store ptr %0, ptr %9, align 8
  store ptr %1, ptr %10, align 8
  store ptr %2, ptr %11, align 8
  store ptr %3, ptr %12, align 8
  store i16 %4, ptr %13, align 2
  store i32 %5, ptr %14, align 4
  store ptr %6, ptr %15, align 8
  store ptr %7, ptr %16, align 8
  call void @llvm.lifetime.start.p0(i64 4, ptr %17) #10
  store i32 0, ptr %17, align 4
  call void @llvm.lifetime.start.p0(i64 8, ptr %18) #10
  store ptr null, ptr %18, align 8
  %19 = load ptr, ptr %9, align 8
  %20 = load ptr, ptr %16, align 8
  %21 = call i32 @add_node_record(ptr noundef %19, ptr noundef %20, ptr noundef %18)
  store i32 %21, ptr %17, align 4
  %22 = icmp ne i32 %21, 0
  br i1 %22, label %23, label %24

23:                                               ; preds = %8
  br label %184

24:                                               ; preds = %8
  %25 = load i32, ptr %14, align 4
  %26 = icmp ne i32 %25, -2
  br i1 %26, label %27, label %34

27:                                               ; preds = %24
  %28 = load i32, ptr %14, align 4
  %29 = icmp ne i32 %28, 0
  br i1 %29, label %30, label %34

30:                                               ; preds = %27
  %31 = load i32, ptr %14, align 4
  %32 = load ptr, ptr %18, align 8
  %33 = getelementptr inbounds nuw %struct.node_record, ptr %32, i32 0, i32 44
  store i32 %31, ptr %33, align 8
  br label %34

34:                                               ; preds = %30, %27, %24
  %35 = load ptr, ptr %18, align 8
  %36 = getelementptr inbounds nuw %struct.node_record, ptr %35, i32 0, i32 33
  store i64 0, ptr %36, align 8
  %37 = load ptr, ptr %11, align 8
  %38 = call ptr @xstrdup(ptr noundef %37)
  %39 = load ptr, ptr %18, align 8
  %40 = getelementptr inbounds nuw %struct.node_record, ptr %39, i32 0, i32 6
  store ptr %38, ptr %40, align 8
  %41 = load ptr, ptr %15, align 8
  %42 = getelementptr inbounds nuw %struct.slurm_conf_node, ptr %41, i32 0, i32 7
  %43 = load i32, ptr %42, align 8
  %44 = load ptr, ptr %18, align 8
  %45 = getelementptr inbounds nuw %struct.node_record, ptr %44, i32 0, i32 12
  store i32 %43, ptr %45, align 4
  %46 = load ptr, ptr %10, align 8
  %47 = call ptr @xstrdup(ptr noundef %46)
  %48 = load ptr, ptr %18, align 8
  %49 = getelementptr inbounds nuw %struct.node_record, ptr %48, i32 0, i32 40
  store ptr %47, ptr %49, align 8
  %50 = load ptr, ptr %12, align 8
  %51 = call ptr @xstrdup(ptr noundef %50)
  %52 = load ptr, ptr %18, align 8
  %53 = getelementptr inbounds nuw %struct.node_record, ptr %52, i32 0, i32 1
  store ptr %51, ptr %53, align 8
  %54 = load i16, ptr %13, align 2
  %55 = load ptr, ptr %18, align 8
  %56 = getelementptr inbounds nuw %struct.node_record, ptr %55, i32 0, i32 51
  store i16 %54, ptr %56, align 8
  %57 = load ptr, ptr %15, align 8
  %58 = getelementptr inbounds nuw %struct.slurm_conf_node, ptr %57, i32 0, i32 17
  %59 = load ptr, ptr %58, align 8
  %60 = call ptr @xstrdup(ptr noundef %59)
  %61 = load ptr, ptr %18, align 8
  %62 = getelementptr inbounds nuw %struct.node_record, ptr %61, i32 0, i32 55
  store ptr %60, ptr %62, align 8
  %63 = load ptr, ptr %18, align 8
  %64 = getelementptr inbounds nuw %struct.node_record, ptr %63, i32 0, i32 44
  %65 = load i32, ptr %64, align 8
  %66 = zext i32 %65 to i64
  %67 = or i64 %66, 67108864
  %68 = trunc i64 %67 to i32
  store i32 %68, ptr %64, align 8
  %69 = load ptr, ptr %18, align 8
  %70 = getelementptr inbounds nuw %struct.node_record, ptr %69, i32 0, i32 37
  %71 = load ptr, ptr %70, align 8
  %72 = load ptr, ptr %18, align 8
  %73 = getelementptr inbounds nuw %struct.node_record, ptr %72, i32 0, i32 6
  %74 = load ptr, ptr %73, align 8
  %75 = load ptr, ptr %18, align 8
  %76 = getelementptr inbounds nuw %struct.node_record, ptr %75, i32 0, i32 40
  %77 = load ptr, ptr %76, align 8
  call void @slurm_reset_alias(ptr noundef %71, ptr noundef %74, ptr noundef %77)
  %78 = load ptr, ptr %16, align 8
  %79 = getelementptr inbounds nuw %struct.config_record_t, ptr %78, i32 0, i32 6
  %80 = load ptr, ptr %79, align 8
  %81 = icmp ne ptr %80, null
  br i1 %81, label %82, label %95

82:                                               ; preds = %34
  %83 = load ptr, ptr %16, align 8
  %84 = getelementptr inbounds nuw %struct.config_record_t, ptr %83, i32 0, i32 6
  %85 = load ptr, ptr %84, align 8
  %86 = call ptr @xstrdup(ptr noundef %85)
  %87 = load ptr, ptr %18, align 8
  %88 = getelementptr inbounds nuw %struct.node_record, ptr %87, i32 0, i32 21
  store ptr %86, ptr %88, align 8
  %89 = load ptr, ptr %16, align 8
  %90 = getelementptr inbounds nuw %struct.config_record_t, ptr %89, i32 0, i32 6
  %91 = load ptr, ptr %90, align 8
  %92 = call ptr @xstrdup(ptr noundef %91)
  %93 = load ptr, ptr %18, align 8
  %94 = getelementptr inbounds nuw %struct.node_record, ptr %93, i32 0, i32 22
  store ptr %92, ptr %94, align 8
  br label %95

95:                                               ; preds = %82, %34
  %96 = load ptr, ptr @power_up_node_bitmap, align 8
  %97 = load ptr, ptr %18, align 8
  %98 = getelementptr inbounds nuw %struct.node_record, ptr %97, i32 0, i32 29
  %99 = load i32, ptr %98, align 8
  %100 = zext i32 %99 to i64
  call void @bit_clear(ptr noundef %96, i64 noundef %100)
  %101 = load ptr, ptr %18, align 8
  %102 = getelementptr inbounds nuw %struct.node_record, ptr %101, i32 0, i32 44
  %103 = load i32, ptr %102, align 8
  %104 = and i32 %103, 15
  %105 = icmp eq i32 %104, 6
  br i1 %105, label %106, label %112

106:                                              ; preds = %95
  %107 = load ptr, ptr @future_node_bitmap, align 8
  %108 = load ptr, ptr %18, align 8
  %109 = getelementptr inbounds nuw %struct.node_record, ptr %108, i32 0, i32 29
  %110 = load i32, ptr %109, align 8
  %111 = zext i32 %110 to i64
  call void @bit_set(ptr noundef %107, i64 noundef %111)
  br label %183

112:                                              ; preds = %95
  %113 = load ptr, ptr %18, align 8
  %114 = getelementptr inbounds nuw %struct.node_record, ptr %113, i32 0, i32 44
  %115 = load i32, ptr %114, align 8
  %116 = zext i32 %115 to i64
  %117 = and i64 %116, 128
  %118 = icmp ne i64 %117, 0
  br i1 %118, label %119, label %182

119:                                              ; preds = %112
  %120 = load ptr, ptr %18, align 8
  call void @make_node_idle(ptr noundef %120, ptr noundef null)
  %121 = load ptr, ptr @cloud_node_bitmap, align 8
  %122 = load ptr, ptr %18, align 8
  %123 = getelementptr inbounds nuw %struct.node_record, ptr %122, i32 0, i32 29
  %124 = load i32, ptr %123, align 8
  %125 = zext i32 %124 to i64
  call void @bit_set(ptr noundef %121, i64 noundef %125)
  %126 = load ptr, ptr @power_down_node_bitmap, align 8
  %127 = load ptr, ptr %18, align 8
  %128 = getelementptr inbounds nuw %struct.node_record, ptr %127, i32 0, i32 29
  %129 = load i32, ptr %128, align 8
  %130 = zext i32 %129 to i64
  call void @bit_set(ptr noundef %126, i64 noundef %130)
  %131 = load ptr, ptr %18, align 8
  %132 = getelementptr inbounds nuw %struct.node_record, ptr %131, i32 0, i32 9
  %133 = load ptr, ptr %132, align 8
  %134 = getelementptr inbounds nuw %struct.config_record_t, ptr %133, i32 0, i32 5
  %135 = load i16, ptr %134, align 8
  %136 = zext i16 %135 to i32
  %137 = load ptr, ptr %18, align 8
  %138 = getelementptr inbounds nuw %struct.node_record, ptr %137, i32 0, i32 37
  %139 = load ptr, ptr %138, align 8
  %140 = load ptr, ptr %18, align 8
  %141 = getelementptr inbounds nuw %struct.node_record, ptr %140, i32 0, i32 28
  %142 = load ptr, ptr %141, align 8
  %143 = call i32 @gres_g_node_config_load(i32 noundef %136, ptr noundef %139, ptr noundef %142, ptr noundef null, ptr noundef null)
  store i32 %143, ptr %17, align 4
  %144 = icmp ne i32 %143, 0
  br i1 %144, label %145, label %146

145:                                              ; preds = %119
  br label %184

146:                                              ; preds = %119
  %147 = load ptr, ptr %18, align 8
  %148 = getelementptr inbounds nuw %struct.node_record, ptr %147, i32 0, i32 37
  %149 = load ptr, ptr %148, align 8
  %150 = load ptr, ptr %18, align 8
  %151 = getelementptr inbounds nuw %struct.node_record, ptr %150, i32 0, i32 9
  %152 = load ptr, ptr %151, align 8
  %153 = getelementptr inbounds nuw %struct.config_record_t, ptr %152, i32 0, i32 7
  %154 = load ptr, ptr %153, align 8
  %155 = load ptr, ptr %18, align 8
  %156 = getelementptr inbounds nuw %struct.node_record, ptr %155, i32 0, i32 27
  %157 = load ptr, ptr %18, align 8
  %158 = getelementptr inbounds nuw %struct.node_record, ptr %157, i32 0, i32 28
  %159 = load ptr, ptr %18, align 8
  %160 = getelementptr inbounds nuw %struct.node_record, ptr %159, i32 0, i32 9
  %161 = load ptr, ptr %160, align 8
  %162 = getelementptr inbounds nuw %struct.config_record_t, ptr %161, i32 0, i32 14
  %163 = load i16, ptr %162, align 2
  %164 = zext i16 %163 to i32
  %165 = load ptr, ptr %18, align 8
  %166 = getelementptr inbounds nuw %struct.node_record, ptr %165, i32 0, i32 9
  %167 = load ptr, ptr %166, align 8
  %168 = getelementptr inbounds nuw %struct.config_record_t, ptr %167, i32 0, i32 2
  %169 = load i16, ptr %168, align 4
  %170 = zext i16 %169 to i32
  %171 = load ptr, ptr %18, align 8
  %172 = getelementptr inbounds nuw %struct.node_record, ptr %171, i32 0, i32 9
  %173 = load ptr, ptr %172, align 8
  %174 = getelementptr inbounds nuw %struct.config_record_t, ptr %173, i32 0, i32 16
  %175 = load i16, ptr %174, align 8
  %176 = zext i16 %175 to i32
  %177 = load i32, ptr getelementptr inbounds nuw (%struct.slurm_conf_t, ptr @slurm_conf, i32 0, i32 34), align 4
  %178 = zext i32 %177 to i64
  %179 = and i64 %178, 1
  %180 = icmp ne i64 %179, 0
  %181 = call i32 @gres_node_config_validate(ptr noundef %149, ptr noundef %154, ptr noundef %156, ptr noundef %158, i32 noundef %164, i32 noundef %170, i32 noundef %176, i1 noundef zeroext %180, ptr noundef null)
  store i32 %181, ptr %17, align 4
  br label %182

182:                                              ; preds = %146, %112
  br label %183

183:                                              ; preds = %182, %106
  br label %184

184:                                              ; preds = %183, %145, %23
  %185 = load i32, ptr %17, align 4
  %186 = icmp ne i32 %185, 0
  br i1 %186, label %187, label %193

187:                                              ; preds = %184
  %188 = load ptr, ptr %18, align 8
  %189 = icmp ne ptr %188, null
  br i1 %189, label %190, label %193

190:                                              ; preds = %187
  %191 = load ptr, ptr %18, align 8
  %192 = call i32 @_delete_node_ptr(ptr noundef %191)
  br label %193

193:                                              ; preds = %190, %187, %184
  %194 = load i32, ptr %17, align 4
  call void @llvm.lifetime.end.p0(i64 8, ptr %18) #10
  call void @llvm.lifetime.end.p0(i64 4, ptr %17) #10
  ret i32 %194
}