; Function Attrs: nounwind uwtable
define internal i32 @_build_node_callback(ptr noundef %0, ptr noundef %1, ptr noundef %2, ptr noundef %3, i16 noundef zeroext %4, i32 noundef %5, ptr noundef readonly captures(none) %6, ptr noundef %7) #0 {
  %9 = alloca ptr, align 8
  call void @llvm.lifetime.start.p0(i64 8, ptr nonnull %9) #15
  store ptr null, ptr %9, align 8
  %10 = call i32 @add_node_record(ptr noundef %0, ptr noundef %7, ptr noundef nonnull %9) #15
  %.not = icmp eq i32 %10, 0
  br i1 %.not, label %11, label %118

11:                                               ; preds = %8
  switch i32 %5, label %12 [
    i32 -2, label %15
    i32 0, label %15
  ]

12:                                               ; preds = %11
  %13 = load ptr, ptr %9, align 8
  %14 = getelementptr inbounds nuw i8, ptr %13, i64 320
  store i32 %5, ptr %14, align 8
  br label %15

15:                                               ; preds = %11, %11, %12
  %16 = load ptr, ptr %9, align 8
  %17 = getelementptr inbounds nuw i8, ptr %16, i64 240
  store i64 0, ptr %17, align 8
  %18 = call ptr @xstrdup(ptr noundef %2) #15
  %19 = load ptr, ptr %9, align 8
  %20 = getelementptr inbounds nuw i8, ptr %19, i64 48
  store ptr %18, ptr %20, align 8
  %21 = getelementptr inbounds nuw i8, ptr %6, i64 56
  %22 = load i32, ptr %21, align 8
  %23 = getelementptr inbounds nuw i8, ptr %19, i64 84
  store i32 %22, ptr %23, align 4
  %24 = call ptr @xstrdup(ptr noundef %1) #15
  %25 = load ptr, ptr %9, align 8
  %26 = getelementptr inbounds nuw i8, ptr %25, i64 288
  store ptr %24, ptr %26, align 8
  %27 = call ptr @xstrdup(ptr noundef %3) #15
  %28 = load ptr, ptr %9, align 8
  %29 = getelementptr inbounds nuw i8, ptr %28, i64 8
  store ptr %27, ptr %29, align 8
  %30 = getelementptr inbounds nuw i8, ptr %28, i64 352
  store i16 %4, ptr %30, align 8
  %31 = getelementptr inbounds nuw i8, ptr %6, i64 104
  %32 = load ptr, ptr %31, align 8
  %33 = call ptr @xstrdup(ptr noundef %32) #15
  %34 = load ptr, ptr %9, align 8
  %35 = getelementptr inbounds nuw i8, ptr %34, i64 384
  store ptr %33, ptr %35, align 8
  %36 = getelementptr inbounds nuw i8, ptr %34, i64 320
  %37 = load i32, ptr %36, align 8
  %38 = or i32 %37, 67108864
  store i32 %38, ptr %36, align 8
  %39 = getelementptr inbounds nuw i8, ptr %34, i64 272
  %40 = load ptr, ptr %39, align 8
  %41 = getelementptr inbounds nuw i8, ptr %34, i64 48
  %42 = load ptr, ptr %41, align 8
  %43 = getelementptr inbounds nuw i8, ptr %34, i64 288
  %44 = load ptr, ptr %43, align 8
  call void @slurm_reset_alias(ptr noundef %40, ptr noundef %42, ptr noundef %44) #15
  %45 = getelementptr inbounds nuw i8, ptr %7, i64 32
  %46 = load ptr, ptr %45, align 8
  %.not23 = icmp eq ptr %46, null
  br i1 %.not23, label %._crit_edge, label %47

._crit_edge:                                      ; preds = %15
  %.pre = load ptr, ptr %9, align 8
  br label %55

47:                                               ; preds = %15
  %48 = call ptr @xstrdup(ptr noundef nonnull %46) #15
  %49 = load ptr, ptr %9, align 8
  %50 = getelementptr inbounds nuw i8, ptr %49, i64 144
  store ptr %48, ptr %50, align 8
  %51 = load ptr, ptr %45, align 8
  %52 = call ptr @xstrdup(ptr noundef %51) #15
  %53 = load ptr, ptr %9, align 8
  %54 = getelementptr inbounds nuw i8, ptr %53, i64 152
  store ptr %52, ptr %54, align 8
  br label %55

55:                                               ; preds = %._crit_edge, %47
  %56 = phi ptr [ %.pre, %._crit_edge ], [ %53, %47 ]
  %57 = load ptr, ptr @power_up_node_bitmap, align 8
  %58 = getelementptr inbounds nuw i8, ptr %56, i64 208
  %59 = load i32, ptr %58, align 8
  %60 = zext i32 %59 to i64
  call void @bit_clear(ptr noundef %57, i64 noundef %60) #15
  %61 = load ptr, ptr %9, align 8
  %62 = getelementptr inbounds nuw i8, ptr %61, i64 320
  %63 = load i32, ptr %62, align 8
  %64 = and i32 %63, 15
  %65 = icmp eq i32 %64, 6
  br i1 %65, label %66, label %71

66:                                               ; preds = %55
  %67 = load ptr, ptr @future_node_bitmap, align 8
  %68 = getelementptr inbounds nuw i8, ptr %61, i64 208
  %69 = load i32, ptr %68, align 8
  %70 = zext i32 %69 to i64
  call void @bit_set(ptr noundef %67, i64 noundef %70) #15
  br label %.thread

71:                                               ; preds = %55
  %72 = and i32 %63, 128
  %.not24 = icmp eq i32 %72, 0
  br i1 %.not24, label %.thread, label %73

73:                                               ; preds = %71
  call void @make_node_idle(ptr noundef nonnull %61, ptr noundef null)
  %74 = load ptr, ptr @cloud_node_bitmap, align 8
  %75 = load ptr, ptr %9, align 8
  %76 = getelementptr inbounds nuw i8, ptr %75, i64 208
  %77 = load i32, ptr %76, align 8
  %78 = zext i32 %77 to i64
  call void @bit_set(ptr noundef %74, i64 noundef %78) #15
  %79 = load ptr, ptr @power_down_node_bitmap, align 8
  %80 = load ptr, ptr %9, align 8
  %81 = getelementptr inbounds nuw i8, ptr %80, i64 208
  %82 = load i32, ptr %81, align 8
  %83 = zext i32 %82 to i64
  call void @bit_set(ptr noundef %79, i64 noundef %83) #15
  %84 = load ptr, ptr %9, align 8
  %85 = getelementptr inbounds nuw i8, ptr %84, i64 72
  %86 = load ptr, ptr %85, align 8
  %87 = getelementptr inbounds nuw i8, ptr %86, i64 24
  %88 = load i16, ptr %87, align 8
  %89 = zext i16 %88 to i32
  %90 = getelementptr inbounds nuw i8, ptr %84, i64 272
  %91 = load ptr, ptr %90, align 8
  %92 = getelementptr inbounds nuw i8, ptr %84, i64 200
  %93 = load ptr, ptr %92, align 8
  %94 = call i32 @gres_g_node_config_load(i32 noundef %89, ptr noundef %91, ptr noundef %93, ptr noundef null, ptr noundef null) #15
  %.not25 = icmp eq i32 %94, 0
  br i1 %.not25, label %95, label %118

95:                                               ; preds = %73
  %96 = load ptr, ptr %9, align 8
  %97 = getelementptr inbounds nuw i8, ptr %96, i64 272
  %98 = load ptr, ptr %97, align 8
  %99 = getelementptr inbounds nuw i8, ptr %96, i64 72
  %100 = load ptr, ptr %99, align 8
  %101 = getelementptr inbounds nuw i8, ptr %100, i64 40
  %102 = load ptr, ptr %101, align 8
  %103 = getelementptr inbounds nuw i8, ptr %96, i64 192
  %104 = getelementptr inbounds nuw i8, ptr %96, i64 200
  %105 = getelementptr inbounds nuw i8, ptr %100, i64 90
  %106 = load i16, ptr %105, align 2
  %107 = zext i16 %106 to i32
  %108 = getelementptr inbounds nuw i8, ptr %100, i64 4
  %109 = load i16, ptr %108, align 4
  %110 = zext i16 %109 to i32
  %111 = getelementptr inbounds nuw i8, ptr %100, i64 96
  %112 = load i16, ptr %111, align 8
  %113 = zext i16 %112 to i32
  %114 = load i32, ptr getelementptr inbounds nuw (i8, ptr @slurm_conf, i64 268), align 4
  %115 = and i32 %114, 1
  %116 = icmp ne i32 %115, 0
  %117 = call i32 @gres_node_config_validate(ptr noundef %98, ptr noundef %102, ptr noundef nonnull %103, ptr noundef nonnull %104, i32 noundef %107, i32 noundef %110, i32 noundef %113, i1 noundef zeroext %116, ptr noundef null) #15
  br label %118

118:                                              ; preds = %95, %73, %8
  %.0 = phi i32 [ %10, %8 ], [ %94, %73 ], [ %117, %95 ]
  %119 = icmp ne i32 %.0, 0
  %120 = load ptr, ptr %9, align 8
  %121 = icmp ne ptr %120, null
  %or.cond3 = select i1 %119, i1 %121, i1 false
  br i1 %or.cond3, label %122, label %.thread

122:                                              ; preds = %118
  %123 = call fastcc i32 @_delete_node_ptr(ptr noundef %120)
  br label %.thread

.thread:                                          ; preds = %71, %66, %122, %118
  %.028 = phi i32 [ %.0, %122 ], [ %.0, %118 ], [ 0, %66 ], [ 0, %71 ]
  call void @llvm.lifetime.end.p0(i64 8, ptr nonnull %9) #15
  ret i32 %.028
}